target datalayout = "e-m:e-p270:32:32-p271:32:32-p272:64:64-i64:64-i128:128-f80:128-n8:16:32:64-S128"
target triple = "x86_64-unknown-linux-gnu"

%"class.icu_75::MaybeStackArray" = type <{ ptr, i32, i8, [40 x i8], [3 x i8] }>
%"class.icu_75::UObject" = type { ptr }
%"class.icu_75::TimeZoneNames" = type { %"class.icu_75::UObject" }
%"class.icu_75::Locale" = type <{ %"class.icu_75::UObject", [12 x i8], [6 x i8], [4 x i8], [2 x i8], i32, [4 x i8], ptr, [157 x i8], [3 x i8], ptr, i8, [7 x i8] }>
%"class.icu_75::CharString" = type { %"class.icu_75::MaybeStackArray", i32, [4 x i8] }
%"class.icu_75::CharStringByteSink" = type { %"class.icu_75::ByteSink", ptr }
%"class.icu_75::ByteSink" = type { ptr }
%"class.icu_75::TZDBTimeZoneNames" = type <{ %"class.icu_75::TimeZoneNames", %"class.icu_75::Locale", [4 x i8], [4 x i8] }>

@.str.2 = private unnamed_addr constant [4 x i8] c"001\00", align 1
@_ZTVN6icu_757UObjectE = external unnamed_addr constant { [5 x ptr] }, align 8
@_ZTVN6icu_7513TimeZoneNamesE = external unnamed_addr constant { [18 x ptr] }, align 8
@_ZN6icu_7515MaybeStackArrayIcLi40EEC1Ev = weak_odr unnamed_addr alias void (ptr), ptr @_ZN6icu_7515MaybeStackArrayIcLi40EEC2Ev
@_ZN6icu_7515MaybeStackArrayIcLi40EED1Ev = weak_odr unnamed_addr alias void (ptr), ptr @_ZN6icu_7515MaybeStackArrayIcLi40EED2Ev

; Function Attrs: mustprogress nounwind uwtable
define weak_odr noundef ptr @_ZNK6icu_7515MaybeStackArrayIcLi40EE8getAliasEv(ptr noundef nonnull align 8 dereferenceable(53) %this) #0 comdat align 2 {
entry:
  %this.addr = alloca ptr, align 8
  store ptr %this, ptr %this.addr, align 8
  %this1 = load ptr, ptr %this.addr, align 8
  %ptr = getelementptr inbounds %"class.icu_75::MaybeStackArray", ptr %this1, i32 0, i32 0
  %0 = load ptr, ptr %ptr, align 8
  ret ptr %0
}

; Function Attrs: mustprogress nounwind uwtable
define weak_odr noundef nonnull align 1 dereferenceable(1) ptr @_ZN6icu_7515MaybeStackArrayIcLi40EEixEl(ptr noundef nonnull align 8 dereferenceable(53) %this, i64 noundef %i) #0 comdat align 2 {
entry:
  %this.addr = alloca ptr, align 8
  %i.addr = alloca i64, align 8
  store ptr %this, ptr %this.addr, align 8
  store i64 %i, ptr %i.addr, align 8
  %this1 = load ptr, ptr %this.addr, align 8
  %ptr = getelementptr inbounds %"class.icu_75::MaybeStackArray", ptr %this1, i32 0, i32 0
  %0 = load ptr, ptr %ptr, align 8
  %1 = load i64, ptr %i.addr, align 8
  %arrayidx = getelementptr inbounds i8, ptr %0, i64 %1
  ret ptr %arrayidx
}

; Function Attrs: mustprogress nounwind uwtable
define linkonce_odr void @_ZN6icu_757UObjectC2Ev(ptr noundef nonnull align 8 dereferenceable(8) %this) unnamed_addr #0 comdat align 2 {
entry:
  %this.addr = alloca ptr, align 8
  store ptr %this, ptr %this.addr, align 8
  %this1 = load ptr, ptr %this.addr, align 8
  store ptr getelementptr inbounds ({ [5 x ptr] }, ptr @_ZTVN6icu_757UObjectE, i32 0, i32 0, i32 2), ptr %this1, align 8
  ret void
}

; Function Attrs: mustprogress nounwind uwtable
define linkonce_odr void @_ZN6icu_7510CharStringD2Ev(ptr noundef nonnull align 8 dereferenceable(60) %this) unnamed_addr #0 comdat align 2 {
entry:
  %this.addr = alloca ptr, align 8
  store ptr %this, ptr %this.addr, align 8
  %this1 = load ptr, ptr %this.addr, align 8
  %buffer = getelementptr inbounds %"class.icu_75::CharString", ptr %this1, i32 0, i32 0
  call void @_ZN6icu_7515MaybeStackArrayIcLi40EED1Ev(ptr noundef nonnull align 8 dereferenceable(53) %buffer) #10
  ret void
}

; Function Attrs: mustprogress nounwind uwtable
define internal noundef signext i8 @_ZL9U_SUCCESS10UErrorCode(i32 noundef %code) #0 {
entry:
  %code.addr = alloca i32, align 4
  store i32 %code, ptr %code.addr, align 4
  %0 = load i32, ptr %code.addr, align 4
  %cmp = icmp sle i32 %0, 0
  %conv = zext i1 %cmp to i8
  ret i8 %conv
}

; Function Attrs: mustprogress nounwind uwtable
define linkonce_odr noundef ptr @_ZN6icu_7510CharString4dataEv(ptr noundef nonnull align 8 dereferenceable(60) %this) #0 comdat align 2 {
entry:
  %this.addr = alloca ptr, align 8
  store ptr %this, ptr %this.addr, align 8
  %this1 = load ptr, ptr %this.addr, align 8
  %buffer = getelementptr inbounds %"class.icu_75::CharString", ptr %this1, i32 0, i32 0
  %call = call noundef ptr @_ZNK6icu_7515MaybeStackArrayIcLi40EE8getAliasEv(ptr noundef nonnull align 8 dereferenceable(53) %buffer)
  ret ptr %call
}

; Function Attrs: mustprogress nounwind uwtable
define linkonce_odr noundef ptr @_ZNK6icu_756Locale7getNameEv(ptr noundef nonnull align 8 dereferenceable(217) %this) #0 comdat align 2 {
entry:
  %this.addr = alloca ptr, align 8
  store ptr %this, ptr %this.addr, align 8
  %this1 = load ptr, ptr %this.addr, align 8
  %fullName = getelementptr inbounds %"class.icu_75::Locale", ptr %this1, i32 0, i32 7
  %0 = load ptr, ptr %fullName, align 8
  ret ptr %0
}

; Function Attrs: mustprogress uwtable
define linkonce_odr void @_ZN6icu_7510CharStringC2Ev(ptr noundef nonnull align 8 dereferenceable(60) %this) unnamed_addr #1 comdat align 2 {
entry:
  %this.addr = alloca ptr, align 8
  store ptr %this, ptr %this.addr, align 8
  %this1 = load ptr, ptr %this.addr, align 8
  %buffer = getelementptr inbounds %"class.icu_75::CharString", ptr %this1, i32 0, i32 0
  call void @_ZN6icu_7515MaybeStackArrayIcLi40EEC1Ev(ptr noundef nonnull align 8 dereferenceable(53) %buffer)
  %len = getelementptr inbounds %"class.icu_75::CharString", ptr %this1, i32 0, i32 1
  store i32 0, ptr %len, align 8
  %buffer2 = getelementptr inbounds %"class.icu_75::CharString", ptr %this1, i32 0, i32 0
  %call = call noundef nonnull align 1 dereferenceable(1) ptr @_ZN6icu_7515MaybeStackArrayIcLi40EEixEl(ptr noundef nonnull align 8 dereferenceable(53) %buffer2, i64 noundef 0)
  store i8 0, ptr %call, align 1
  ret void
}

; Function Attrs: mustprogress nounwind uwtable
define linkonce_odr noundef ptr @_ZNK6icu_756Locale10getCountryEv(ptr noundef nonnull align 8 dereferenceable(217) %this) #0 comdat align 2 {
entry:
  %this.addr = alloca ptr, align 8
  store ptr %this, ptr %this.addr, align 8
  %this1 = load ptr, ptr %this.addr, align 8
  %country = getelementptr inbounds %"class.icu_75::Locale", ptr %this1, i32 0, i32 3
  %arraydecay = getelementptr inbounds [4 x i8], ptr %country, i64 0, i64 0
  ret ptr %arraydecay
}

; Function Attrs: mustprogress nounwind uwtable
define linkonce_odr void @_ZN6icu_7513TimeZoneNamesC2Ev(ptr noundef nonnull align 8 dereferenceable(8) %this) unnamed_addr #0 comdat align 2 {
entry:
  %this.addr = alloca ptr, align 8
  store ptr %this, ptr %this.addr, align 8
  %this1 = load ptr, ptr %this.addr, align 8
  call void @_ZN6icu_757UObjectC2Ev(ptr noundef nonnull align 8 dereferenceable(8) %this1) #10
  store ptr getelementptr inbounds ({ [18 x ptr] }, ptr @_ZTVN6icu_7513TimeZoneNamesE, i32 0, i32 0, i32 2), ptr %this1, align 8
  ret void
}

; Function Attrs: mustprogress uwtable
define void @_ZN6icu_7517TZDBTimeZoneNamesC2ERKNS_6LocaleE(ptr noundef nonnull align 8 dereferenceable(236) %this, ptr noundef nonnull align 8 dereferenceable(217) %locale) unnamed_addr #1 align 2 personality ptr @__gxx_personality_v0 {
entry:
  %this.addr = alloca ptr, align 8
  %locale.addr = alloca ptr, align 8
  %exn.slot = alloca ptr, align 8
  %ehselector.slot = alloca i32, align 4
  %useWorld = alloca i8, align 1
  %region = alloca ptr, align 8
  %regionLen = alloca i32, align 4
  %status = alloca i32, align 4
  %loc = alloca %"class.icu_75::CharString", align 8
  %sink = alloca %"class.icu_75::CharStringByteSink", align 8
  store ptr %this, ptr %this.addr, align 8
  store ptr %locale, ptr %locale.addr, align 8
  %this1 = load ptr, ptr %this.addr, align 8
  call void @_ZN6icu_7513TimeZoneNamesC2Ev(ptr noundef nonnull align 8 dereferenceable(8) %this1) #10
  store ptr getelementptr inbounds ({ [18 x ptr] }, ptr @_ZTVN6icu_7517TZDBTimeZoneNamesE, i32 0, i32 0, i32 2), ptr %this1, align 8
  %fLocale = getelementptr inbounds %"class.icu_75::TZDBTimeZoneNames", ptr %this1, i32 0, i32 1
  %0 = load ptr, ptr %locale.addr, align 8
  invoke void @_ZN6icu_756LocaleC1ERKS0_(ptr noundef nonnull align 8 dereferenceable(217) %fLocale, ptr noundef nonnull align 8 dereferenceable(217) %0)
          to label %invoke.cont unwind label %lpad

invoke.cont:                                      ; preds = %entry
  store i8 1, ptr %useWorld, align 1
  %fLocale2 = getelementptr inbounds %"class.icu_75::TZDBTimeZoneNames", ptr %this1, i32 0, i32 1
  %call = invoke noundef ptr @_ZNK6icu_756Locale10getCountryEv(ptr noundef nonnull align 8 dereferenceable(217) %fLocale2)
          to label %invoke.cont4 unwind label %lpad3

invoke.cont4:                                     ; preds = %invoke.cont
  store ptr %call, ptr %region, align 8
  %1 = load ptr, ptr %region, align 8
  %call5 = call i64 @strlen(ptr noundef %1) #13
  %conv = trunc i64 %call5 to i32
  store i32 %conv, ptr %regionLen, align 4
  %2 = load i32, ptr %regionLen, align 4
  %cmp = icmp eq i32 %2, 0
  br i1 %cmp, label %if.then, label %if.else

if.then:                                          ; preds = %invoke.cont4
  store i32 0, ptr %status, align 4
  invoke void @_ZN6icu_7510CharStringC2Ev(ptr noundef nonnull align 8 dereferenceable(60) %loc)
          to label %invoke.cont6 unwind label %lpad3

invoke.cont6:                                     ; preds = %if.then
  invoke void @_ZN6icu_7518CharStringByteSinkC1EPNS_10CharStringE(ptr noundef nonnull align 8 dereferenceable(16) %sink, ptr noundef %loc)
          to label %invoke.cont8 unwind label %lpad7

invoke.cont8:                                     ; preds = %invoke.cont6
  %fLocale9 = getelementptr inbounds %"class.icu_75::TZDBTimeZoneNames", ptr %this1, i32 0, i32 1
  %call12 = invoke noundef ptr @_ZNK6icu_756Locale7getNameEv(ptr noundef nonnull align 8 dereferenceable(217) %fLocale9)
          to label %invoke.cont11 unwind label %lpad10

invoke.cont11:                                    ; preds = %invoke.cont8
  invoke void @ulocimp_addLikelySubtags_75(ptr noundef %call12, ptr noundef nonnull align 8 dereferenceable(8) %sink, ptr noundef %status)
          to label %invoke.cont13 unwind label %lpad10

invoke.cont13:                                    ; preds = %invoke.cont11
  call void @_ZN6icu_7518CharStringByteSinkD1Ev(ptr noundef nonnull align 8 dereferenceable(16) %sink) #10
  %call15 = invoke noundef ptr @_ZN6icu_7510CharString4dataEv(ptr noundef nonnull align 8 dereferenceable(60) %loc)
          to label %invoke.cont14 unwind label %lpad7

invoke.cont14:                                    ; preds = %invoke.cont13
  %fRegion = getelementptr inbounds %"class.icu_75::TZDBTimeZoneNames", ptr %this1, i32 0, i32 2
  %arraydecay = getelementptr inbounds [4 x i8], ptr %fRegion, i64 0, i64 0
  %call17 = invoke i32 @uloc_getCountry_75(ptr noundef %call15, ptr noundef %arraydecay, i32 noundef 4, ptr noundef %status)
          to label %invoke.cont16 unwind label %lpad7

invoke.cont16:                                    ; preds = %invoke.cont14
  store i32 %call17, ptr %regionLen, align 4
  %3 = load i32, ptr %status, align 4
  %call19 = invoke noundef signext i8 @_ZL9U_SUCCESS10UErrorCode(i32 noundef %3)
          to label %invoke.cont18 unwind label %lpad7

invoke.cont18:                                    ; preds = %invoke.cont16
  %tobool = icmp ne i8 %call19, 0
  br i1 %tobool, label %land.lhs.true, label %if.end

land.lhs.true:                                    ; preds = %invoke.cont18
  %4 = load i32, ptr %regionLen, align 4
  %cmp20 = icmp slt i32 %4, 4
  br i1 %cmp20, label %if.then21, label %if.end

if.then21:                                        ; preds = %land.lhs.true
  store i8 0, ptr %useWorld, align 1
  br label %if.end

lpad:                                             ; preds = %entry
  %5 = landingpad { ptr, i32 }
          cleanup
  %6 = extractvalue { ptr, i32 } %5, 0
  store ptr %6, ptr %exn.slot, align 8
  %7 = extractvalue { ptr, i32 } %5, 1
  store i32 %7, ptr %ehselector.slot, align 4
  br label %ehcleanup36

lpad3:                                            ; preds = %if.then, %invoke.cont
  %8 = landingpad { ptr, i32 }
          cleanup
  %9 = extractvalue { ptr, i32 } %8, 0
  store ptr %9, ptr %exn.slot, align 8
  %10 = extractvalue { ptr, i32 } %8, 1
  store i32 %10, ptr %ehselector.slot, align 4
  br label %ehcleanup35

lpad7:                                            ; preds = %invoke.cont16, %invoke.cont14, %invoke.cont13, %invoke.cont6
  %11 = landingpad { ptr, i32 }
          cleanup
  %12 = extractvalue { ptr, i32 } %11, 0
  store ptr %12, ptr %exn.slot, align 8
  %13 = extractvalue { ptr, i32 } %11, 1
  store i32 %13, ptr %ehselector.slot, align 4
  br label %ehcleanup

lpad10:                                           ; preds = %invoke.cont11, %invoke.cont8
  %14 = landingpad { ptr, i32 }
          cleanup
  %15 = extractvalue { ptr, i32 } %14, 0
  store ptr %15, ptr %exn.slot, align 8
  %16 = extractvalue { ptr, i32 } %14, 1
  store i32 %16, ptr %ehselector.slot, align 4
  call void @_ZN6icu_7518CharStringByteSinkD1Ev(ptr noundef nonnull align 8 dereferenceable(16) %sink) #10
  br label %ehcleanup

if.end:                                           ; preds = %if.then21, %land.lhs.true, %invoke.cont18
  call void @_ZN6icu_7510CharStringD2Ev(ptr noundef nonnull align 8 dereferenceable(60) %loc) #10
  br label %if.end28

ehcleanup:                                        ; preds = %lpad10, %lpad7
  call void @_ZN6icu_7510CharStringD2Ev(ptr noundef nonnull align 8 dereferenceable(60) %loc) #10
  br label %ehcleanup35

if.else:                                          ; preds = %invoke.cont4
  %17 = load i32, ptr %regionLen, align 4
  %cmp22 = icmp slt i32 %17, 4
  br i1 %cmp22, label %if.then23, label %if.end27

if.then23:                                        ; preds = %if.else
  %fRegion24 = getelementptr inbounds %"class.icu_75::TZDBTimeZoneNames", ptr %this1, i32 0, i32 2
  %arraydecay25 = getelementptr inbounds [4 x i8], ptr %fRegion24, i64 0, i64 0
  %18 = load ptr, ptr %region, align 8
  %call26 = call ptr @strcpy(ptr noundef %arraydecay25, ptr noundef %18) #10
  store i8 0, ptr %useWorld, align 1
  br label %if.end27

if.end27:                                         ; preds = %if.then23, %if.else
  br label %if.end28

if.end28:                                         ; preds = %if.end27, %if.end
  %19 = load i8, ptr %useWorld, align 1
  %tobool29 = icmp ne i8 %19, 0
  br i1 %tobool29, label %if.then30, label %if.end34

if.then30:                                        ; preds = %if.end28
  %fRegion31 = getelementptr inbounds %"class.icu_75::TZDBTimeZoneNames", ptr %this1, i32 0, i32 2
  %arraydecay32 = getelementptr inbounds [4 x i8], ptr %fRegion31, i64 0, i64 0
  %call33 = call ptr @strcpy(ptr noundef %arraydecay32, ptr noundef @.str.2) #10
  br label %if.end34

if.end34:                                         ; preds = %if.then30, %if.end28
  ret void

ehcleanup35:                                      ; preds = %ehcleanup, %lpad3
  call void @_ZN6icu_756LocaleD1Ev(ptr noundef nonnull align 8 dereferenceable(217) %fLocale) #10
  br label %ehcleanup36

ehcleanup36:                                      ; preds = %ehcleanup35, %lpad
  call void @_ZN6icu_7513TimeZoneNamesD2Ev(ptr noundef nonnull align 8 dereferenceable(8) %this1) #10
  br label %eh.resume

eh.resume:                                        ; preds = %ehcleanup36
  %exn = load ptr, ptr %exn.slot, align 8
  %sel = load i32, ptr %ehselector.slot, align 4
  %lpad.val = insertvalue { ptr, i32 } poison, ptr %exn, 0
  %lpad.val37 = insertvalue { ptr, i32 } %lpad.val, i32 %sel, 1
  resume { ptr, i32 } %lpad.val37
}