; Function Attrs: mustprogress uwtable
define void @_ZN6icu_7517TZDBTimeZoneNamesC2ERKNS_6LocaleE(ptr noundef nonnull align 8 dereferenceable(236) %this, ptr noundef nonnull align 8 dereferenceable(217) %locale) unnamed_addr #1 align 2 personality ptr @__gxx_personality_v0 {
entry:
  %status = alloca i32, align 4
  %loc = alloca %"class.icu_75::CharString", align 8
  %sink = alloca %"class.icu_75::CharStringByteSink", align 8
  store ptr getelementptr inbounds ({ [18 x ptr] }, ptr @_ZTVN6icu_7517TZDBTimeZoneNamesE, i64 0, i32 0, i64 2), ptr %this, align 8
  %fLocale = getelementptr inbounds i8, ptr %this, i64 8
  invoke void @_ZN6icu_756LocaleC1ERKS0_(ptr noundef nonnull align 8 dereferenceable(217) %fLocale, ptr noundef nonnull align 8 dereferenceable(217) %locale)
          to label %invoke.cont unwind label %lpad

invoke.cont:                                      ; preds = %entry
  %country.i = getelementptr inbounds i8, ptr %this, i64 34
  %call5 = tail call i64 @strlen(ptr noundef nonnull dereferenceable(1) %country.i) #23
  %conv = trunc i64 %call5 to i32
  %cmp = icmp eq i32 %conv, 0
  br i1 %cmp, label %if.then, label %if.else

if.then:                                          ; preds = %invoke.cont
  store i32 0, ptr %status, align 4
  invoke void @_ZN6icu_7515MaybeStackArrayIcLi40EEC1Ev(ptr noundef nonnull align 8 dereferenceable(53) %loc)
          to label %invoke.cont6 unwind label %lpad3

invoke.cont6:                                     ; preds = %if.then
  %len.i = getelementptr inbounds i8, ptr %loc, i64 56
  store i32 0, ptr %len.i, align 8
  %0 = load ptr, ptr %loc, align 8
  store i8 0, ptr %0, align 1
  invoke void @_ZN6icu_7518CharStringByteSinkC1EPNS_10CharStringE(ptr noundef nonnull align 8 dereferenceable(16) %sink, ptr noundef nonnull %loc)
          to label %invoke.cont8 unwind label %lpad7

invoke.cont8:                                     ; preds = %invoke.cont6
  %fullName.i = getelementptr inbounds i8, ptr %this, i64 48
  %1 = load ptr, ptr %fullName.i, align 8
  invoke void @ulocimp_addLikelySubtags_75(ptr noundef %1, ptr noundef nonnull align 8 dereferenceable(8) %sink, ptr noundef nonnull %status)
          to label %invoke.cont13 unwind label %lpad10

invoke.cont13:                                    ; preds = %invoke.cont8
  call void @_ZN6icu_7518CharStringByteSinkD1Ev(ptr noundef nonnull align 8 dereferenceable(16) %sink) #20
  %2 = load ptr, ptr %loc, align 8
  %fRegion = getelementptr inbounds i8, ptr %this, i64 232
  %call17 = invoke i32 @uloc_getCountry_75(ptr noundef %2, ptr noundef nonnull %fRegion, i32 noundef 4, ptr noundef nonnull %status)
          to label %invoke.cont16 unwind label %lpad7

invoke.cont16:                                    ; preds = %invoke.cont13
  %3 = load i32, ptr %status, align 4
  %cmp.i = icmp slt i32 %3, 1
  %cmp20 = icmp slt i32 %call17, 4
  %or.cond = select i1 %cmp.i, i1 %cmp20, i1 false
  call void @_ZN6icu_7515MaybeStackArrayIcLi40EED1Ev(ptr noundef nonnull align 8 dereferenceable(53) %loc) #20
  br i1 %or.cond, label %if.end34, label %if.then30

lpad:                                             ; preds = %entry
  %4 = landingpad { ptr, i32 }
          cleanup
  br label %ehcleanup36

lpad3:                                            ; preds = %if.then
  %5 = landingpad { ptr, i32 }
          cleanup
  br label %ehcleanup35

lpad7:                                            ; preds = %invoke.cont13, %invoke.cont6
  %6 = landingpad { ptr, i32 }
          cleanup
  br label %ehcleanup

lpad10:                                           ; preds = %invoke.cont8
  %7 = landingpad { ptr, i32 }
          cleanup
  call void @_ZN6icu_7518CharStringByteSinkD1Ev(ptr noundef nonnull align 8 dereferenceable(16) %sink) #20
  br label %ehcleanup

ehcleanup:                                        ; preds = %lpad10, %lpad7
  %.pn = phi { ptr, i32 } [ %6, %lpad7 ], [ %7, %lpad10 ]
  call void @_ZN6icu_7515MaybeStackArrayIcLi40EED1Ev(ptr noundef nonnull align 8 dereferenceable(53) %loc) #20
  br label %ehcleanup35

if.else:                                          ; preds = %invoke.cont
  %cmp22 = icmp slt i32 %conv, 4
  br i1 %cmp22, label %if.then23, label %if.then30

if.then23:                                        ; preds = %if.else
  %fRegion24 = getelementptr inbounds i8, ptr %this, i64 232
  %call26 = tail call ptr @strcpy(ptr noundef nonnull dereferenceable(1) %fRegion24, ptr noundef nonnull dereferenceable(1) %country.i) #20
  br label %if.end34

if.then30:                                        ; preds = %if.else, %invoke.cont16
  %fRegion31 = getelementptr inbounds i8, ptr %this, i64 232
  store i32 3223600, ptr %fRegion31, align 8
  br label %if.end34

if.end34:                                         ; preds = %if.then23, %if.then30, %invoke.cont16
  ret void

ehcleanup35:                                      ; preds = %ehcleanup, %lpad3
  %.pn.pn = phi { ptr, i32 } [ %.pn, %ehcleanup ], [ %5, %lpad3 ]
  call void @_ZN6icu_756LocaleD1Ev(ptr noundef nonnull align 8 dereferenceable(217) %fLocale) #20
  br label %ehcleanup36

ehcleanup36:                                      ; preds = %ehcleanup35, %lpad
  %.pn.pn.pn = phi { ptr, i32 } [ %.pn.pn, %ehcleanup35 ], [ %4, %lpad ]
  call void @_ZN6icu_7513TimeZoneNamesD2Ev(ptr noundef nonnull align 8 dereferenceable(8) %this) #20
  resume { ptr, i32 } %.pn.pn.pn
}